; Function Attrs: mustprogress uwtable
define noalias ptr @lean_io_basesharedmutex_new(ptr noundef readnone captures(none) %0) local_unnamed_addr #0 {
  %2 = load ptr, ptr @_ZN4leanL32g_basesharedmutex_external_classE, align 8, !tbaa !3
  %3 = tail call noalias noundef nonnull dereferenceable(56) ptr @_Znwm(i64 noundef 56) #10
  tail call void @llvm.memset.p0.i64(ptr noundef nonnull align 8 dereferenceable(56) %3, i8 0, i64 56, i1 false)
  tail call void @lean_inc_heartbeat()
  %4 = tail call noalias ptr @mi_malloc_small(i64 noundef 24) #11
  %5 = icmp eq ptr %4, null
  br i1 %5, label %6, label %_ZL19lean_alloc_externalP19lean_external_classPv.exit

6:                                                ; preds = %1
  tail call void @lean_internal_panic_out_of_memory() #12
  unreachable

_ZL19lean_alloc_externalP19lean_external_classPv.exit: ; preds = %1
  %7 = getelementptr inbounds nuw i8, ptr %4, i64 4
  store i32 1, ptr %4, align 4, !tbaa !7
  store i32 -33554408, ptr %7, align 4
  %8 = getelementptr inbounds nuw i8, ptr %4, i64 8
  store ptr %2, ptr %8, align 8, !tbaa !10
  %9 = getelementptr inbounds nuw i8, ptr %4, i64 16
  store ptr %3, ptr %9, align 8, !tbaa !12
  tail call void @lean_inc_heartbeat()
  %10 = tail call noalias ptr @mi_malloc_small(i64 noundef 24) #11
  %11 = icmp eq ptr %10, null
  br i1 %11, label %12, label %_ZN4lean15io_result_mk_okEP11lean_object.exit

12:                                               ; preds = %_ZL19lean_alloc_externalP19lean_external_classPv.exit
  tail call void @lean_internal_panic_out_of_memory() #12
  unreachable

_ZN4lean15io_result_mk_okEP11lean_object.exit:    ; preds = %_ZL19lean_alloc_externalP19lean_external_classPv.exit
  %13 = getelementptr inbounds nuw i8, ptr %10, i64 4
  store i32 1, ptr %10, align 4, !tbaa !7
  store i32 131096, ptr %13, align 4
  %14 = getelementptr inbounds nuw i8, ptr %10, i64 8
  store ptr %4, ptr %14, align 8, !tbaa !3
  %15 = getelementptr inbounds nuw i8, ptr %10, i64 16
  store ptr inttoptr (i64 1 to ptr), ptr %15, align 8, !tbaa !3
  ret ptr %10
}